; ModuleID = '60/36.c'
source_filename = "60/36.c"
target datalayout = "e-m:e-p270:32:32-p271:32:32-p272:64:64-i64:64-f80:128-n8:16:32:64-S128"
target triple = "x86_64-pc-linux-gnu"

@.str = private unnamed_addr constant [3 x i8] c"%d\00", align 1
@.str.1 = private unnamed_addr constant [7 x i8] c"%d %d\0A\00", align 1
@.str.2 = private unnamed_addr constant [6 x i8] c"empty\00", align 1

; Function Attrs: noinline nounwind uwtable
define dso_local void @main() #0 {
  %1 = alloca i32, align 4
  %2 = alloca i32, align 4
  %3 = alloca i32, align 4
  %4 = alloca [10000 x i32], align 16
  %5 = alloca i32, align 4
  store i32 0, i32* %5, align 4
  %6 = call i32 (i8*, ...) @__isoc99_scanf(i8* getelementptr inbounds ([3 x i8], [3 x i8]* @.str, i64 0, i64 0), i32* %1)
  store i32 2, i32* %3, align 4
  br label %7

7:                                                ; preds = %44, %0
  %8 = load i32, i32* %3, align 4
  %9 = load i32, i32* %1, align 4
  %10 = icmp sle i32 %8, %9
  br i1 %10, label %11, label %47

11:                                               ; preds = %7
  store i32 2, i32* %2, align 4
  br label %12

12:                                               ; preds = %26, %11
  %13 = load i32, i32* %2, align 4
  %14 = sitofp i32 %13 to double
  %15 = load i32, i32* %3, align 4
  %16 = sitofp i32 %15 to double
  %17 = call double @sqrt(double %16) #3
  %18 = fcmp ole double %14, %17
  br i1 %18, label %19, label %29

19:                                               ; preds = %12
  %20 = load i32, i32* %3, align 4
  %21 = load i32, i32* %2, align 4
  %22 = srem i32 %20, %21
  %23 = icmp eq i32 %22, 0
  br i1 %23, label %24, label %25

24:                                               ; preds = %19
  br label %29

25:                                               ; preds = %19
  br label %26

26:                                               ; preds = %25
  %27 = load i32, i32* %2, align 4
  %28 = add nsw i32 %27, 1
  store i32 %28, i32* %2, align 4
  br label %12

29:                                               ; preds = %24, %12
  %30 = load i32, i32* %2, align 4
  %31 = sitofp i32 %30 to double
  %32 = load i32, i32* %3, align 4
  %33 = sitofp i32 %32 to double
  %34 = call double @sqrt(double %33) #3
  %35 = fcmp ogt double %31, %34
  br i1 %35, label %36, label %43

36:                                               ; preds = %29
  %37 = load i32, i32* %3, align 4
  %38 = load i32, i32* %5, align 4
  %39 = sext i32 %38 to i64
  %40 = getelementptr inbounds [10000 x i32], [10000 x i32]* %4, i64 0, i64 %39
  store i32 %37, i32* %40, align 4
  %41 = load i32, i32* %5, align 4
  %42 = add nsw i32 %41, 1
  store i32 %42, i32* %5, align 4
  br label %43

43:                                               ; preds = %36, %29
  br label %44

44:                                               ; preds = %43
  %45 = load i32, i32* %3, align 4
  %46 = add nsw i32 %45, 1
  store i32 %46, i32* %3, align 4
  br label %7

47:                                               ; preds = %7
  store i32 0, i32* %3, align 4
  store i32 0, i32* %2, align 4
  br label %48

48:                                               ; preds = %78, %47
  %49 = load i32, i32* %2, align 4
  %50 = load i32, i32* %5, align 4
  %51 = icmp slt i32 %49, %50
  br i1 %51, label %52, label %81

52:                                               ; preds = %48
  %53 = load i32, i32* %2, align 4
  %54 = sext i32 %53 to i64
  %55 = getelementptr inbounds [10000 x i32], [10000 x i32]* %4, i64 0, i64 %54
  %56 = load i32, i32* %55, align 4
  %57 = load i32, i32* %2, align 4
  %58 = add nsw i32 %57, 1
  %59 = sext i32 %58 to i64
  %60 = getelementptr inbounds [10000 x i32], [10000 x i32]* %4, i64 0, i64 %59
  %61 = load i32, i32* %60, align 4
  %62 = sub nsw i32 %61, 2
  %63 = icmp eq i32 %56, %62
  br i1 %63, label %64, label %77

64:                                               ; preds = %52
  %65 = load i32, i32* %2, align 4
  %66 = sext i32 %65 to i64
  %67 = getelementptr inbounds [10000 x i32], [10000 x i32]* %4, i64 0, i64 %66
  %68 = load i32, i32* %67, align 4
  %69 = load i32, i32* %2, align 4
  %70 = add nsw i32 %69, 1
  %71 = sext i32 %70 to i64
  %72 = getelementptr inbounds [10000 x i32], [10000 x i32]* %4, i64 0, i64 %71
  %73 = load i32, i32* %72, align 4
  %74 = call i32 (i8*, ...) @printf(i8* getelementptr inbounds ([7 x i8], [7 x i8]* @.str.1, i64 0, i64 0), i32 %68, i32 %73)
  %75 = load i32, i32* %3, align 4
  %76 = add nsw i32 %75, 1
  store i32 %76, i32* %3, align 4
  br label %77

77:                                               ; preds = %64, %52
  br label %78

78:                                               ; preds = %77
  %79 = load i32, i32* %2, align 4
  %80 = add nsw i32 %79, 1
  store i32 %80, i32* %2, align 4
  br label %48

81:                                               ; preds = %48
  %82 = load i32, i32* %3, align 4
  %83 = icmp eq i32 %82, 0
  br i1 %83, label %84, label %86

84:                                               ; preds = %81
  %85 = call i32 (i8*, ...) @printf(i8* getelementptr inbounds ([6 x i8], [6 x i8]* @.str.2, i64 0, i64 0))
  br label %86

86:                                               ; preds = %84, %81
  ret void
}

declare dso_local i32 @__isoc99_scanf(i8*, ...) #1

; Function Attrs: nounwind
declare dso_local double @sqrt(double) #2

declare dso_local i32 @printf(i8*, ...) #1


!llvm.module.flags = !{!0}
!llvm.ident = !{!1}

!0 = !{i32 1, !"wchar_size", i32 4}
!1 = !{!"clang version 10.0.0-4ubuntu1 "}
